; Function Attrs: mustprogress uwtable
define void @_ZN7testing8internal16ForkingDeathTestC2EPKcNS_7MatcherIRKNSt7__cxx1112basic_stringIcSt11char_traitsIcESaIcEEEEE(ptr noundef nonnull writeonly align 8 captures(none) dereferenceable(64) initializes((0, 8)) %0, ptr noundef %1, ptr noundef captures(none) %2) unnamed_addr #3 align 2 personality ptr @__gxx_personality_v0 {
  %4 = alloca %"class.testing::Matcher", align 8
  %5 = getelementptr inbounds nuw i8, ptr %4, i64 8
  %6 = getelementptr inbounds nuw i8, ptr %2, i64 8
  %7 = load ptr, ptr %6, align 8, !tbaa !148
  store ptr %7, ptr %5, align 8, !tbaa !148
  %8 = getelementptr inbounds nuw i8, ptr %4, i64 16
  %9 = getelementptr inbounds nuw i8, ptr %2, i64 16
  %10 = load i64, ptr %9, align 8, !tbaa !27
  store i64 %10, ptr %8, align 8, !tbaa !27
  store ptr null, ptr %6, align 8, !tbaa !148
  store ptr getelementptr inbounds nuw inrange(-16, 32) (i8, ptr @_ZTVN7testing7MatcherIRKNSt7__cxx1112basic_stringIcSt11char_traitsIcESaIcEEEEE, i64 16), ptr %4, align 8, !tbaa !32
  invoke void @_ZN7testing8internal9DeathTestC2Ev(ptr noundef nonnull align 8 dereferenceable(60) %0)
          to label %_ZN7testing8internal11MatcherBaseIRKNSt7__cxx1112basic_stringIcSt11char_traitsIcESaIcEEEED2Ev.exit unwind label %21

_ZN7testing8internal11MatcherBaseIRKNSt7__cxx1112basic_stringIcSt11char_traitsIcESaIcEEEED2Ev.exit: ; preds = %3
  %11 = getelementptr inbounds nuw i8, ptr %0, i64 8
  store ptr %1, ptr %11, align 8, !tbaa !198
  %12 = getelementptr inbounds nuw i8, ptr %0, i64 16
  %13 = getelementptr inbounds nuw i8, ptr %0, i64 24
  store ptr %7, ptr %13, align 8, !tbaa !148
  %14 = getelementptr inbounds nuw i8, ptr %0, i64 32
  store i64 %10, ptr %14, align 8, !tbaa !27
  store ptr getelementptr inbounds nuw inrange(-16, 32) (i8, ptr @_ZTVN7testing7MatcherIRKNSt7__cxx1112basic_stringIcSt11char_traitsIcESaIcEEEEE, i64 16), ptr %12, align 8, !tbaa !32
  %15 = getelementptr inbounds nuw i8, ptr %0, i64 40
  store i8 0, ptr %15, align 8, !tbaa !197
  %16 = getelementptr inbounds nuw i8, ptr %0, i64 44
  store i32 -1, ptr %16, align 4, !tbaa !216
  %17 = getelementptr inbounds nuw i8, ptr %0, i64 48
  store i32 0, ptr %17, align 8, !tbaa !161
  %18 = getelementptr inbounds nuw i8, ptr %0, i64 52
  store i32 -1, ptr %18, align 4, !tbaa !154
  %19 = getelementptr inbounds nuw i8, ptr %0, i64 56
  store i32 -1, ptr %19, align 8, !tbaa !180
  store ptr getelementptr inbounds nuw inrange(-16, 56) (i8, ptr @_ZTVN7testing8internal16ForkingDeathTestE, i64 16), ptr %0, align 8, !tbaa !32
  %20 = getelementptr inbounds nuw i8, ptr %0, i64 60
  store i32 -1, ptr %20, align 4, !tbaa !233
  ret void

21:                                               ; preds = %3
  %22 = landingpad { ptr, i32 }
          cleanup
  call void @_ZN7testing8internal11MatcherBaseIRKNSt7__cxx1112basic_stringIcSt11char_traitsIcESaIcEEEED2Ev(ptr noundef nonnull align 8 dereferenceable(24) %4) #57
  resume { ptr, i32 } %22
}